(dp0
S'group_profiles'
p1
(dp2
I1000
I6
ssS'profiles'
p3
(dp4
I5
(dp5
S'name'
p6
S'Profile name'
p7
sS'settings'
p8
(dp9
I1
(dp10
S'banned'
p11
S'1230-1630'
p12
sS'time'
p13
S'60'
p14
ssI2
(dp15
g11
S'1330-1730'
p16
sg13
S'50'
p17
ssI3
(dp18
g11
S'1430-2355'
p19
sg13
S'40'
p20
ssI4
(dp21
g11
S'1530-2355'
p22
sg13
S'30'
p23
ssI5
(dp24
g11
S'1630-2030'
p25
sg13
S'20'
p26
ssI6
(dp27
g11
S'1730-2130'
p28
sg13
S'10'
p29
ssI7
(dp30
g11
S'1830-2230'
p31
sg13
g29
sssS'lot'
p32
S'Soft'
p33
sS'not'
p34
S'KDE'
p35
sS'id'
p36
S'5'
p37
sS'noi'
p38
g29
ssI6
(dp39
g6
S'Childrens'
p40
sg8
(dp41
I1
(dp42
g11
g12
sg13
S'80'
p43
ssI2
(dp44
g11
g16
sg13
S'70'
p45
ssI3
(dp46
g11
S'1430-1830'
p47
sg13
g14
ssI4
(dp48
g11
S'1530-1930'
p49
sg13
g17
ssI5
(dp50
g11
g25
sg13
g20
ssI6
(dp51
g11
g28
sg13
g23
ssI7
(dp52
g11
g31
sg13
g26
sssg32
S'Hard'
p53
sg34
S'PyQt'
p54
sg36
S'6'
p55
sg38
g37
sssS'user_profiles'
p56
(dp57
I1000
I5
ss.