(dp0
S'group_profiles'
p1
(dp2
I1000
I5
sI155
I5
ssS'profiles'
p3
(dp4
I5
(dp5
S'name'
p6
S'Profile name'
p7
sS'settings'
p8
(dp9
I1
(dp10
S'banned'
p11
S'1230-1630'
p12
sS'time'
p13
S'80'
p14
ssI2
(dp15
g11
S'1330-1730'
p16
sg13
S'70'
p17
ssI3
(dp18
g11
S'1430-1830'
p19
sg13
S'60'
p20
ssI4
(dp21
g11
S'1530-1930'
p22
sg13
S'50'
p23
ssI5
(dp24
g11
S'1630-2030'
p25
sg13
S'40'
p26
ssI6
(dp27
g11
S'1730-2130'
p28
sg13
S'30'
p29
ssI7
(dp30
g11
S'1830-2230'
p31
sg13
S'20'
p32
sssS'lot'
p33
S'Soft'
p34
sS'not'
p35
S'KDE'
p36
sS'id'
p37
S'5'
p38
sS'noi'
p39
S'10'
p40
ssI6
(dp41
S'noi'
p42
csip
_unpickle_type
p43
(S'PyQt4.QtCore'
p44
S'QString'
p45
(V5
p46
tp47
tp48
Rp49
sS'settings'
p50
(dp51
I1
(dp52
S'banned'
p53
g43
(g44
S'QString'
p54
(V1230-1630
p55
tp56
tp57
Rp58
sS'time'
p59
S'80'
p60
ssI2
(dp61
g53
g43
(g44
S'QString'
p62
(V1330-1730
p63
tp64
tp65
Rp66
sg59
S'70'
p67
ssI3
(dp68
g53
g43
(g44
S'QString'
p69
(V1430-1830
p70
tp71
tp72
Rp73
sg59
S'60'
p74
ssI4
(dp75
g53
g43
(g44
S'QString'
p76
(V1530-1930
p77
tp78
tp79
Rp80
sg59
S'50'
p81
ssI5
(dp82
g53
g43
(g44
S'QString'
p83
(V1630-2030
p84
tp85
tp86
Rp87
sg59
S'40'
p88
ssI6
(dp89
g53
g43
(g44
S'QString'
p90
(V1730-2130
p91
tp92
tp93
Rp94
sg59
S'30'
p95
ssI7
(dp96
g53
g43
(g44
S'QString'
p97
(V1830-2230
p98
tp99
tp100
Rp101
sg59
S'20'
p102
sssS'lot'
p103
g43
(g44
S'QString'
p104
(VHard
p105
tp106
tp107
Rp108
sS'not'
p109
g43
(g44
S'QString'
p110
(VPyQt
p111
tp112
tp113
Rp114
sS'id'
p115
S'6'
p116
sS'name'
p117
g43
(g44
S'QString'
p118
(VChildrens2356
p119
tp120
tp121
Rp122
sssS'user_profiles'
p123
(dp124
I1000
I5
sI155
I6
ss.