(dp0
S'group_profiles'
p1
(dp2
sS'profiles'
p3
(dp4
I5
(dp5
S'noi'
p6
S'10'
p7
sS'settings'
p8
(dp9
I1
(dp10
S'banned'
p11
S'1230-1630'
p12
sS'time'
p13
S'80'
p14
ssI2
(dp15
g11
S'1330-1730'
p16
sg13
S'70'
p17
ssI3
(dp18
g11
S'1430-1830'
p19
sg13
S'60'
p20
ssI4
(dp21
g11
S'1530-1930'
p22
sg13
S'50'
p23
ssI5
(dp24
g11
S'1630-2030'
p25
sg13
S'40'
p26
ssI6
(dp27
g11
S'1730-2130'
p28
sg13
S'30'
p29
ssI7
(dp30
g11
S'1830-2230'
p31
sg13
S'20'
p32
sssS'lot'
p33
S'Soft'
p34
sS'not'
p35
S'KDE'
p36
sS'id'
p37
S'5'
p38
sS'name'
p39
S'Profile name'
p40
ssI6
(dp41
g6
g38
sg8
(dp42
I1
(dp43
g11
g12
sg13
g14
ssI2
(dp44
g11
g16
sg13
g17
ssI3
(dp45
g11
g19
sg13
g20
ssI4
(dp46
g11
g22
sg13
g23
ssI5
(dp47
g11
g25
sg13
g26
ssI6
(dp48
g11
g28
sg13
g29
ssI7
(dp49
g11
g31
sg13
g32
sssg33
S'Hard'
p50
sg35
S'PyQt'
p51
sg37
S'6'
p52
sg39
S'Childrens'
p53
sssS'user_profiles'
p54
(dp55
s.