(dp0
S'group_profiles'
p1
(dp2
sS'profiles'
p3
(dp4
I5
(dp5
S'noi'
p6
csip
_unpickle_type
p7
(S'PyQt4.QtCore'
p8
S'QString'
p9
(V10
p10
tp11
tp12
Rp13
sS'settings'
p14
(dp15
I1
(dp16
S'banned'
p17
g7
(g8
S'QString'
p18
(V1230-1630
p19
tp20
tp21
Rp22
sS'time'
p23
S'60'
p24
ssI2
(dp25
g17
g7
(g8
S'QString'
p26
(V1330-1730
p27
tp28
tp29
Rp30
sg23
S'50'
p31
ssI3
(dp32
g17
g7
(g8
S'QString'
p33
(V1430-2355
p34
tp35
tp36
Rp37
sg23
S'40'
p38
ssI4
(dp39
g17
g7
(g8
S'QString'
p40
(V1530-2355
p41
tp42
tp43
Rp44
sg23
S'30'
p45
ssI5
(dp46
g17
g7
(g8
S'QString'
p47
(V1630-2030
p48
tp49
tp50
Rp51
sg23
S'20'
p52
ssI6
(dp53
g17
g7
(g8
S'QString'
p54
(V1730-2130
p55
tp56
tp57
Rp58
sg23
S'10'
p59
ssI7
(dp60
g17
g7
(g8
S'QString'
p61
(V1830-2230
p62
tp63
tp64
Rp65
sg23
S'10'
p66
sssS'lot'
p67
g7
(g8
S'QString'
p68
(VSoft
p69
tp70
tp71
Rp72
sS'not'
p73
g7
(g8
S'QString'
p74
(VKDE
p75
tp76
tp77
Rp78
sS'id'
p79
S'5'
p80
sS'name'
p81
g7
(g8
S'QString'
p82
(VEmployee
p83
tp84
tp85
Rp86
ssI6
(dp87
g6
g7
(g8
S'QString'
p88
(V5
p89
tp90
tp91
Rp92
sg14
(dp93
I1
(dp94
g17
g7
(g8
S'QString'
p95
(V1230-1630
p96
tp97
tp98
Rp99
sg23
S'80'
p100
ssI2
(dp101
g17
g7
(g8
S'QString'
p102
(V1330-1730
p103
tp104
tp105
Rp106
sg23
S'70'
p107
ssI3
(dp108
g17
g7
(g8
S'QString'
p109
(V1430-1830
p110
tp111
tp112
Rp113
sg23
S'60'
p114
ssI4
(dp115
g17
g7
(g8
S'QString'
p116
(V1530-1930
p117
tp118
tp119
Rp120
sg23
S'50'
p121
ssI5
(dp122
g17
g7
(g8
S'QString'
p123
(V1630-2030
p124
tp125
tp126
Rp127
sg23
S'40'
p128
ssI6
(dp129
g17
g7
(g8
S'QString'
p130
(V1730-2130
p131
tp132
tp133
Rp134
sg23
S'30'
p135
ssI7
(dp136
g17
g7
(g8
S'QString'
p137
(V1830-2230
p138
tp139
tp140
Rp141
sg23
S'20'
p142
sssg67
g7
(g8
S'QString'
p143
(VHard
p144
tp145
tp146
Rp147
sg73
g7
(g8
S'QString'
p148
(VPyQt
p149
tp150
tp151
Rp152
sg79
S'6'
p153
sg81
g7
(g8
S'QString'
p154
(VChildrens
p155
tp156
tp157
Rp158
sssS'user_profiles'
p159
(dp160
s.